; Function Attrs: nounwind uwtable
define internal range(i32 0, 2) i32 @connecting_getsock(ptr noundef %0, ptr noundef writeonly captures(none) %1) #0 {
  %3 = getelementptr inbounds nuw i8, ptr %0, i64 24
  %4 = load ptr, ptr %3, align 8, !tbaa !109
  %.not = icmp eq ptr %4, null
  br i1 %.not, label %8, label %5

5:                                                ; preds = %2
  %6 = tail call i32 @Curl_conn_get_socket(ptr noundef nonnull %0, i32 noundef 0) #19
  %.not7 = icmp eq i32 %6, -1
  br i1 %.not7, label %8, label %7

7:                                                ; preds = %5
  store i32 %6, ptr %1, align 4, !tbaa !28
  br label %8

8:                                                ; preds = %5, %2, %7
  %.0 = phi i32 [ 1, %7 ], [ 0, %2 ], [ 0, %5 ]
  ret i32 %.0
}